; Function Attrs: mustprogress uwtable
define internal void @"_ZNSt17_Function_handlerIFvvEZN3gmx10EnergyData7Element12scheduleTaskEldRKSt8functionIFvS4_IS0_EEEE3$_1E9_M_invokeERKSt9_Any_data"(ptr noundef nonnull readonly align 8 captures(none) dereferenceable(16) %0) #0 align 2 {
  %.val = load ptr, ptr %0, align 8, !tbaa !234
  %2 = getelementptr i8, ptr %.val, i64 40
  %.val.val = load ptr, ptr %2, align 8, !tbaa !62
  %3 = getelementptr i8, ptr %.val.val, i64 8
  %.val.val.val = load ptr, ptr %3, align 8, !tbaa !109
  tail call void @_ZN3gmx12EnergyOutput19recordNonEnergyStepEv(ptr noundef nonnull align 8 dereferenceable(392) %.val.val.val)
  ret void
}